	.section	__TEXT,__text,regular,pure_instructions
	.build_version macos, 15, 0	sdk_version 15, 5
	.globl	_PACountPerformPrint            ; -- Begin function PACountPerformPrint
	.p2align	2
_PACountPerformPrint:                   ; @PACountPerformPrint
	.cfi_startproc
; %bb.0:
	sub	sp, sp, #16
	.cfi_def_cfa_offset 16
	mov	x8, x0
	str	w8, [sp, #12]
	ldr	w0, [sp, #8]
	add	sp, sp, #16
	ret
	.cfi_endproc
                                        ; -- End function
	.globl	_PACountPerformConstruct        ; -- Begin function PACountPerformConstruct
	.p2align	2
_PACountPerformConstruct:               ; @PACountPerformConstruct
	.cfi_startproc
; %bb.0:
	sub	sp, sp, #16
	.cfi_def_cfa_offset 16
	str	w0, [sp, #8]
	ldr	w0, [sp, #12]
	add	sp, sp, #16
	ret
	.cfi_endproc
                                        ; -- End function
	.globl	_PACountPerformCopy             ; -- Begin function PACountPerformCopy
	.p2align	2
_PACountPerformCopy:                    ; @PACountPerformCopy
	.cfi_startproc
; %bb.0:
	sub	sp, sp, #16
	.cfi_def_cfa_offset 16
	mov	x8, x0
	str	w8, [sp, #8]
	ldr	w0, [sp, #12]
	add	sp, sp, #16
	ret
	.cfi_endproc
                                        ; -- End function
	.globl	_PACountPerformRuin             ; -- Begin function PACountPerformRuin
	.p2align	2
_PACountPerformRuin:                    ; @PACountPerformRuin
	.cfi_startproc
; %bb.0:
	sub	sp, sp, #16
	.cfi_def_cfa_offset 16
	mov	x8, x0
	str	w8, [sp, #12]
	ldr	w0, [sp, #8]
	add	sp, sp, #16
	ret
	.cfi_endproc
                                        ; -- End function
	.globl	_PACountPerformInit             ; -- Begin function PACountPerformInit
	.p2align	2
_PACountPerformInit:                    ; @PACountPerformInit
	.cfi_startproc
; %bb.0:
	sub	sp, sp, #16
	.cfi_def_cfa_offset 16
	mov	x8, x0
	str	w8, [sp, #8]
	ldr	w0, [sp, #12]
	add	sp, sp, #16
	ret
	.cfi_endproc
                                        ; -- End function
	.globl	_PACountPerformPutValue         ; -- Begin function PACountPerformPutValue
	.p2align	2
_PACountPerformPutValue:                ; @PACountPerformPutValue
	.cfi_startproc
; %bb.0:
	sub	sp, sp, #16
	.cfi_def_cfa_offset 16
	mov	x8, x0
	str	w8, [sp, #8]
	str	w1, [sp, #4]
	ldr	w8, [sp, #4]
	str	w8, [sp, #8]
	ldr	w8, [sp, #8]
	str	w8, [sp, #12]
	ldr	w0, [sp, #12]
	add	sp, sp, #16
	ret
	.cfi_endproc
                                        ; -- End function
	.globl	_PACountPerformDelete           ; -- Begin function PACountPerformDelete
	.p2align	2
_PACountPerformDelete:                  ; @PACountPerformDelete
	.cfi_startproc
; %bb.0:
	sub	sp, sp, #16
	.cfi_def_cfa_offset 16
	mov	x8, x0
	str	w8, [sp, #12]
	ldr	w0, [sp, #8]
	add	sp, sp, #16
	ret
	.cfi_endproc
                                        ; -- End function
.subsections_via_symbols
