	.arch armv6
	.fpu vfp
	.eabi_attribute 28, 1
	.eabi_attribute 20, 1
	.eabi_attribute 21, 1
	.eabi_attribute 23, 3
	.eabi_attribute 24, 1
	.eabi_attribute 25, 1
	.eabi_attribute 26, 2
	.eabi_attribute 30, 6
	.eabi_attribute 34, 1
	.eabi_attribute 18, 4
	.file	"Destination.c"
	.text
	.align	2
	.global	PADestinationPerformConstruct
	.syntax unified
	.arm
	.type	PADestinationPerformConstruct, %function
PADestinationPerformConstruct:
	@ args = 0, pretend = 0, frame = 8
	@ frame_needed = 1, uses_anonymous_args = 0
	@ link register save eliminated.
	str	fp, [sp, #-4]!
	add	fp, sp, #0
	sub	sp, sp, #12
	ldr	r3, [fp, #-8]
	mov	r0, r3
	add	sp, fp, #0
	@ sp needed
	ldr	fp, [sp], #4
	bx	lr
	.size	PADestinationPerformConstruct, .-PADestinationPerformConstruct
	.align	2
	.global	PADestinationPerformCopy
	.syntax unified
	.arm
	.type	PADestinationPerformCopy, %function
PADestinationPerformCopy:
	@ args = 0, pretend = 0, frame = 8
	@ frame_needed = 1, uses_anonymous_args = 0
	@ link register save eliminated.
	str	fp, [sp, #-4]!
	add	fp, sp, #0
	sub	sp, sp, #12
	ldr	r3, [fp, #-8]
	mov	r0, r3
	add	sp, fp, #0
	@ sp needed
	ldr	fp, [sp], #4
	bx	lr
	.size	PADestinationPerformCopy, .-PADestinationPerformCopy
	.align	2
	.global	PADestinationPerformRuin
	.syntax unified
	.arm
	.type	PADestinationPerformRuin, %function
PADestinationPerformRuin:
	@ args = 0, pretend = 0, frame = 8
	@ frame_needed = 1, uses_anonymous_args = 0
	@ link register save eliminated.
	str	fp, [sp, #-4]!
	add	fp, sp, #0
	sub	sp, sp, #12
	ldr	r3, [fp, #-8]
	mov	r0, r3
	add	sp, fp, #0
	@ sp needed
	ldr	fp, [sp], #4
	bx	lr
	.size	PADestinationPerformRuin, .-PADestinationPerformRuin
	.align	2
	.global	PADestinationPerformInit
	.syntax unified
	.arm
	.type	PADestinationPerformInit, %function
PADestinationPerformInit:
	@ args = 0, pretend = 0, frame = 8
	@ frame_needed = 1, uses_anonymous_args = 0
	@ link register save eliminated.
	str	fp, [sp, #-4]!
	add	fp, sp, #0
	sub	sp, sp, #12
	ldr	r3, [fp, #-8]
	mov	r0, r3
	add	sp, fp, #0
	@ sp needed
	ldr	fp, [sp], #4
	bx	lr
	.size	PADestinationPerformInit, .-PADestinationPerformInit
	.align	2
	.global	PADestinationPerformDelete
	.syntax unified
	.arm
	.type	PADestinationPerformDelete, %function
PADestinationPerformDelete:
	@ args = 0, pretend = 0, frame = 8
	@ frame_needed = 1, uses_anonymous_args = 0
	@ link register save eliminated.
	str	fp, [sp, #-4]!
	add	fp, sp, #0
	sub	sp, sp, #12
	ldr	r3, [fp, #-8]
	mov	r0, r3
	add	sp, fp, #0
	@ sp needed
	ldr	fp, [sp], #4
	bx	lr
	.size	PADestinationPerformDelete, .-PADestinationPerformDelete
	.ident	"GCC: (Raspbian 12.2.0-14+rpi1+deb12u1) 12.2.0"
	.section	.note.GNU-stack,"",%progbits
