	.arch armv6
	.fpu vfp
	.eabi_attribute 28, 1
	.eabi_attribute 20, 1
	.eabi_attribute 21, 1
	.eabi_attribute 23, 3
	.eabi_attribute 24, 1
	.eabi_attribute 25, 1
	.eabi_attribute 26, 2
	.eabi_attribute 30, 6
	.eabi_attribute 34, 1
	.eabi_attribute 18, 4
	.file	"Element.c"
	.text
	.align	2
	.global	PAElementPerformConstruct
	.syntax unified
	.arm
	.type	PAElementPerformConstruct, %function
PAElementPerformConstruct:
	@ args = 0, pretend = 0, frame = 24
	@ frame_needed = 1, uses_anonymous_args = 0
	@ link register save eliminated.
	str	fp, [sp, #-4]!
	add	fp, sp, #0
	sub	sp, sp, #28
	str	r0, [fp, #-16]
	str	r1, [fp, #-20]
	str	r2, [fp, #-24]
	ldr	r3, [fp, #-8]
	mov	r0, r3
	add	sp, fp, #0
	@ sp needed
	ldr	fp, [sp], #4
	bx	lr
	.size	PAElementPerformConstruct, .-PAElementPerformConstruct
	.align	2
	.global	PAElementPerformCopy
	.syntax unified
	.arm
	.type	PAElementPerformCopy, %function
PAElementPerformCopy:
	@ args = 0, pretend = 0, frame = 8
	@ frame_needed = 1, uses_anonymous_args = 0
	@ link register save eliminated.
	str	fp, [sp, #-4]!
	add	fp, sp, #0
	sub	sp, sp, #12
	ldr	r3, [fp, #-8]
	mov	r0, r3
	add	sp, fp, #0
	@ sp needed
	ldr	fp, [sp], #4
	bx	lr
	.size	PAElementPerformCopy, .-PAElementPerformCopy
	.align	2
	.global	PAElementPerformRuin
	.syntax unified
	.arm
	.type	PAElementPerformRuin, %function
PAElementPerformRuin:
	@ args = 0, pretend = 0, frame = 8
	@ frame_needed = 1, uses_anonymous_args = 0
	@ link register save eliminated.
	str	fp, [sp, #-4]!
	add	fp, sp, #0
	sub	sp, sp, #12
	ldr	r3, [fp, #-8]
	mov	r0, r3
	add	sp, fp, #0
	@ sp needed
	ldr	fp, [sp], #4
	bx	lr
	.size	PAElementPerformRuin, .-PAElementPerformRuin
	.align	2
	.global	PAElementPerformInit
	.syntax unified
	.arm
	.type	PAElementPerformInit, %function
PAElementPerformInit:
	@ args = 0, pretend = 0, frame = 8
	@ frame_needed = 1, uses_anonymous_args = 0
	@ link register save eliminated.
	str	fp, [sp, #-4]!
	add	fp, sp, #0
	sub	sp, sp, #12
	ldr	r3, [fp, #-8]
	mov	r0, r3
	add	sp, fp, #0
	@ sp needed
	ldr	fp, [sp], #4
	bx	lr
	.size	PAElementPerformInit, .-PAElementPerformInit
	.align	2
	.global	PAElementPerformPutStatus
	.syntax unified
	.arm
	.type	PAElementPerformPutStatus, %function
PAElementPerformPutStatus:
	@ args = 0, pretend = 0, frame = 16
	@ frame_needed = 1, uses_anonymous_args = 0
	@ link register save eliminated.
	str	fp, [sp, #-4]!
	add	fp, sp, #0
	sub	sp, sp, #20
	str	r0, [fp, #-16]
	ldr	r3, [fp, #-8]
	mov	r0, r3
	add	sp, fp, #0
	@ sp needed
	ldr	fp, [sp], #4
	bx	lr
	.size	PAElementPerformPutStatus, .-PAElementPerformPutStatus
	.align	2
	.global	PAElementPerformPutData
	.syntax unified
	.arm
	.type	PAElementPerformPutData, %function
PAElementPerformPutData:
	@ args = 0, pretend = 0, frame = 16
	@ frame_needed = 1, uses_anonymous_args = 0
	@ link register save eliminated.
	str	fp, [sp, #-4]!
	add	fp, sp, #0
	sub	sp, sp, #20
	str	r0, [fp, #-16]
	ldr	r3, [fp, #-8]
	mov	r0, r3
	add	sp, fp, #0
	@ sp needed
	ldr	fp, [sp], #4
	bx	lr
	.size	PAElementPerformPutData, .-PAElementPerformPutData
	.align	2
	.global	PAElementPerformPutFeature
	.syntax unified
	.arm
	.type	PAElementPerformPutFeature, %function
PAElementPerformPutFeature:
	@ args = 0, pretend = 0, frame = 16
	@ frame_needed = 1, uses_anonymous_args = 0
	@ link register save eliminated.
	str	fp, [sp, #-4]!
	add	fp, sp, #0
	sub	sp, sp, #20
	str	r0, [fp, #-16]
	ldr	r3, [fp, #-8]
	mov	r0, r3
	add	sp, fp, #0
	@ sp needed
	ldr	fp, [sp], #4
	bx	lr
	.size	PAElementPerformPutFeature, .-PAElementPerformPutFeature
	.align	2
	.global	PAElementPerformDelete
	.syntax unified
	.arm
	.type	PAElementPerformDelete, %function
PAElementPerformDelete:
	@ args = 0, pretend = 0, frame = 8
	@ frame_needed = 1, uses_anonymous_args = 0
	@ link register save eliminated.
	str	fp, [sp, #-4]!
	add	fp, sp, #0
	sub	sp, sp, #12
	ldr	r3, [fp, #-8]
	mov	r0, r3
	add	sp, fp, #0
	@ sp needed
	ldr	fp, [sp], #4
	bx	lr
	.size	PAElementPerformDelete, .-PAElementPerformDelete
	.ident	"GCC: (Raspbian 12.2.0-14+rpi1+deb12u1) 12.2.0"
	.section	.note.GNU-stack,"",%progbits
