	.section	__TEXT,__text,regular,pure_instructions
	.build_version macos, 15, 0	sdk_version 15, 5
	.globl	_PAInputPerformConstruct        ; -- Begin function PAInputPerformConstruct
	.p2align	2
_PAInputPerformConstruct:               ; @PAInputPerformConstruct
	.cfi_startproc
; %bb.0:
	sub	sp, sp, #80
	stp	x29, x30, [sp, #64]             ; 16-byte Folded Spill
	add	x29, sp, #64
	.cfi_def_cfa w29, 16
	.cfi_offset w30, -8
	.cfi_offset w29, -16
	adrp	x8, ___stack_chk_guard@GOTPAGE
	ldr	x8, [x8, ___stack_chk_guard@GOTPAGEOFF]
	ldr	x8, [x8]
	stur	x8, [x29, #-8]
	mov	x8, x0
	stur	w8, [x29, #-28]
	mov	x8, x1
	str	w8, [sp, #32]
	stur	x3, [x29, #-24]
	stur	x4, [x29, #-16]
	ldur	x8, [x29, #-24]
	str	x8, [sp, #16]
	ldur	w8, [x29, #-16]
	str	w8, [sp, #24]
	str	x2, [sp, #8]
	ldur	x9, [x29, #-8]
	adrp	x8, ___stack_chk_guard@GOTPAGE
	ldr	x8, [x8, ___stack_chk_guard@GOTPAGEOFF]
	ldr	x8, [x8]
	subs	x8, x8, x9
	b.eq	LBB0_2
	b	LBB0_1
LBB0_1:
	bl	___stack_chk_fail
LBB0_2:
	ldp	x29, x30, [sp, #64]             ; 16-byte Folded Reload
	add	sp, sp, #80
	ret
	.cfi_endproc
                                        ; -- End function
	.globl	_PAInputPerformCopy             ; -- Begin function PAInputPerformCopy
	.p2align	2
_PAInputPerformCopy:                    ; @PAInputPerformCopy
	.cfi_startproc
; %bb.0:
	sub	sp, sp, #16
	.cfi_def_cfa_offset 16
	str	x0, [sp, #8]
	add	sp, sp, #16
	ret
	.cfi_endproc
                                        ; -- End function
	.globl	_PAInputPerformInit             ; -- Begin function PAInputPerformInit
	.p2align	2
_PAInputPerformInit:                    ; @PAInputPerformInit
	.cfi_startproc
; %bb.0:
	sub	sp, sp, #16
	.cfi_def_cfa_offset 16
	str	x0, [sp, #8]
	add	sp, sp, #16
	ret
	.cfi_endproc
                                        ; -- End function
	.globl	_PAInputPerformRuin             ; -- Begin function PAInputPerformRuin
	.p2align	2
_PAInputPerformRuin:                    ; @PAInputPerformRuin
	.cfi_startproc
; %bb.0:
	sub	sp, sp, #16
	.cfi_def_cfa_offset 16
	str	x0, [sp, #8]
	ldr	w0, [sp, #4]
	add	sp, sp, #16
	ret
	.cfi_endproc
                                        ; -- End function
	.globl	_PAInputPerformDelete           ; -- Begin function PAInputPerformDelete
	.p2align	2
_PAInputPerformDelete:                  ; @PAInputPerformDelete
	.cfi_startproc
; %bb.0:
	sub	sp, sp, #16
	.cfi_def_cfa_offset 16
	str	x0, [sp, #8]
	ldr	w0, [sp, #4]
	add	sp, sp, #16
	ret
	.cfi_endproc
                                        ; -- End function
.subsections_via_symbols
