	.section	__TEXT,__text,regular,pure_instructions
	.build_version macos, 15, 0	sdk_version 15, 5
	.globl	_PALinkPerformConstruct         ; -- Begin function PALinkPerformConstruct
	.p2align	2
_PALinkPerformConstruct:                ; @PALinkPerformConstruct
	.cfi_startproc
; %bb.0:
	sub	sp, sp, #16
	.cfi_def_cfa_offset 16
	mov	x9, x8
	mov	x8, x0
	str	x8, [sp, #8]
	ldr	q0, [x0]
	str	q0, [x9]
	ldr	x8, [x0, #16]
	str	x8, [x9, #16]
	add	sp, sp, #16
	ret
	.cfi_endproc
                                        ; -- End function
	.globl	_PALinkPerformRuin              ; -- Begin function PALinkPerformRuin
	.p2align	2
_PALinkPerformRuin:                     ; @PALinkPerformRuin
	.cfi_startproc
; %bb.0:
	sub	sp, sp, #16
	.cfi_def_cfa_offset 16
	str	x0, [sp, #8]
	ldr	w0, [sp, #4]
	add	sp, sp, #16
	ret
	.cfi_endproc
                                        ; -- End function
	.globl	_PALinkPerformCopy              ; -- Begin function PALinkPerformCopy
	.p2align	2
_PALinkPerformCopy:                     ; @PALinkPerformCopy
	.cfi_startproc
; %bb.0:
	sub	sp, sp, #16
	.cfi_def_cfa_offset 16
	str	x0, [sp, #8]
	add	sp, sp, #16
	ret
	.cfi_endproc
                                        ; -- End function
	.globl	_PALinkPerformInit              ; -- Begin function PALinkPerformInit
	.p2align	2
_PALinkPerformInit:                     ; @PALinkPerformInit
	.cfi_startproc
; %bb.0:
	sub	sp, sp, #16
	.cfi_def_cfa_offset 16
	str	x0, [sp, #8]
	add	sp, sp, #16
	ret
	.cfi_endproc
                                        ; -- End function
	.globl	_PALinkPerformPutPair           ; -- Begin function PALinkPerformPutPair
	.p2align	2
_PALinkPerformPutPair:                  ; @PALinkPerformPutPair
	.cfi_startproc
; %bb.0:
	sub	sp, sp, #32
	.cfi_def_cfa_offset 32
	mov	x9, x8
	mov	x8, x0
	str	x8, [sp, #24]
	mov	x8, x1
	str	x8, [sp, #16]
	ldr	q0, [x1]
	str	q0, [x0]
	ldr	x8, [x1, #16]
	str	x8, [x0, #16]
	ldr	q0, [x0]
	str	q0, [x9]
	ldr	x8, [x0, #16]
	str	x8, [x9, #16]
	add	sp, sp, #32
	ret
	.cfi_endproc
                                        ; -- End function
	.globl	_PALinkPerformDelete            ; -- Begin function PALinkPerformDelete
	.p2align	2
_PALinkPerformDelete:                   ; @PALinkPerformDelete
	.cfi_startproc
; %bb.0:
	sub	sp, sp, #16
	.cfi_def_cfa_offset 16
	str	x0, [sp, #8]
	ldr	w0, [sp, #4]
	add	sp, sp, #16
	ret
	.cfi_endproc
                                        ; -- End function
.subsections_via_symbols
