	.section	__TEXT,__text,regular,pure_instructions
	.build_version macos, 15, 0	sdk_version 26, 2
	.globl	_PASeriesPerformCopy            ; -- Begin function PASeriesPerformCopy
	.p2align	2
_PASeriesPerformCopy:                   ; @PASeriesPerformCopy
	.cfi_startproc
; %bb.0:
	sub	sp, sp, #16
	.cfi_def_cfa_offset 16
	ldr	x0, [sp, #8]
	add	sp, sp, #16
	ret
	.cfi_endproc
                                        ; -- End function
	.globl	_PASeriesPerformPutCount        ; -- Begin function PASeriesPerformPutCount
	.p2align	2
_PASeriesPerformPutCount:               ; @PASeriesPerformPutCount
	.cfi_startproc
; %bb.0:
	sub	sp, sp, #16
	.cfi_def_cfa_offset 16
	mov	x8, x0
	str	w8, [sp, #12]
	ldr	x0, [sp]
	add	sp, sp, #16
	ret
	.cfi_endproc
                                        ; -- End function
	.globl	_PASeriesPerformPutArrayList    ; -- Begin function PASeriesPerformPutArrayList
	.p2align	2
_PASeriesPerformPutArrayList:           ; @PASeriesPerformPutArrayList
	.cfi_startproc
; %bb.0:
	sub	sp, sp, #16
	.cfi_def_cfa_offset 16
	str	x0, [sp, #8]
	ldr	x0, [sp]
	add	sp, sp, #16
	ret
	.cfi_endproc
                                        ; -- End function
	.globl	_PASeriesPut                    ; -- Begin function PASeriesPut
	.p2align	2
_PASeriesPut:                           ; @PASeriesPut
	.cfi_startproc
; %bb.0:
	sub	sp, sp, #16
	.cfi_def_cfa_offset 16
	mov	x8, x1
	str	w8, [sp, #12]
	str	w0, [sp, #8]
	ldr	x0, [sp]
	add	sp, sp, #16
	ret
	.cfi_endproc
                                        ; -- End function
	.globl	_PASeriesGet                    ; -- Begin function PASeriesGet
	.p2align	2
_PASeriesGet:                           ; @PASeriesGet
	.cfi_startproc
; %bb.0:
	sub	sp, sp, #16
	.cfi_def_cfa_offset 16
	mov	x8, x0
	str	w8, [sp, #12]
	ldr	w0, [sp, #8]
	add	sp, sp, #16
	ret
	.cfi_endproc
                                        ; -- End function
	.globl	_PASeriesPerformConstruct       ; -- Begin function PASeriesPerformConstruct
	.p2align	2
_PASeriesPerformConstruct:              ; @PASeriesPerformConstruct
	.cfi_startproc
; %bb.0:
	sub	sp, sp, #64
	stp	x29, x30, [sp, #48]             ; 16-byte Folded Spill
	add	x29, sp, #48
	.cfi_def_cfa w29, 16
	.cfi_offset w30, -8
	.cfi_offset w29, -16
	adrp	x8, ___stack_chk_guard@GOTPAGE
	ldr	x8, [x8, ___stack_chk_guard@GOTPAGEOFF]
	ldr	x8, [x8]
	stur	x8, [x29, #-8]
	str	x0, [sp, #24]
	str	x1, [sp, #32]
	ldr	x8, [sp, #24]
	str	x8, [sp, #8]
	ldr	w8, [sp, #32]
	str	w8, [sp, #16]
	ldur	x9, [x29, #-8]
	adrp	x8, ___stack_chk_guard@GOTPAGE
	ldr	x8, [x8, ___stack_chk_guard@GOTPAGEOFF]
	ldr	x8, [x8]
	subs	x8, x8, x9
	b.eq	LBB5_2
	b	LBB5_1
LBB5_1:
	bl	___stack_chk_fail
LBB5_2:
	ldp	x29, x30, [sp, #48]             ; 16-byte Folded Reload
	add	sp, sp, #64
	ret
	.cfi_endproc
                                        ; -- End function
	.globl	_PASeriesPerformPrint           ; -- Begin function PASeriesPerformPrint
	.p2align	2
_PASeriesPerformPrint:                  ; @PASeriesPerformPrint
	.cfi_startproc
; %bb.0:
	sub	sp, sp, #16
	.cfi_def_cfa_offset 16
	str	x0, [sp, #8]
	add	sp, sp, #16
	ret
	.cfi_endproc
                                        ; -- End function
	.globl	_PASeriesPerformInit            ; -- Begin function PASeriesPerformInit
	.p2align	2
_PASeriesPerformInit:                   ; @PASeriesPerformInit
	.cfi_startproc
; %bb.0:
	sub	sp, sp, #16
	.cfi_def_cfa_offset 16
	ldr	x0, [sp, #8]
	add	sp, sp, #16
	ret
	.cfi_endproc
                                        ; -- End function
	.globl	_PASeriesPerformRuin            ; -- Begin function PASeriesPerformRuin
	.p2align	2
_PASeriesPerformRuin:                   ; @PASeriesPerformRuin
	.cfi_startproc
; %bb.0:
	sub	sp, sp, #16
	.cfi_def_cfa_offset 16
	ldr	x0, [sp, #8]
	add	sp, sp, #16
	ret
	.cfi_endproc
                                        ; -- End function
	.globl	_PASeriesPerformPutList         ; -- Begin function PASeriesPerformPutList
	.p2align	2
_PASeriesPerformPutList:                ; @PASeriesPerformPutList
	.cfi_startproc
; %bb.0:
	sub	sp, sp, #16
	.cfi_def_cfa_offset 16
	str	x0, [sp, #8]
	ldr	x0, [sp]
	add	sp, sp, #16
	ret
	.cfi_endproc
                                        ; -- End function
	.globl	_PASeriesPerformDelete          ; -- Begin function PASeriesPerformDelete
	.p2align	2
_PASeriesPerformDelete:                 ; @PASeriesPerformDelete
	.cfi_startproc
; %bb.0:
	sub	sp, sp, #16
	.cfi_def_cfa_offset 16
	str	x0, [sp, #8]
	ldr	x0, [sp]
	add	sp, sp, #16
	ret
	.cfi_endproc
                                        ; -- End function
.subsections_via_symbols
