	.section	__TEXT,__text,regular,pure_instructions
	.build_version macos, 15, 0	sdk_version 26, 2
	.globl	_PAStatusPerformConstruct       ; -- Begin function PAStatusPerformConstruct
	.p2align	2
_PAStatusPerformConstruct:              ; @PAStatusPerformConstruct
	.cfi_startproc
; %bb.0:
	sub	sp, sp, #16
	.cfi_def_cfa_offset 16
	str	w0, [sp, #8]
	ldr	w0, [sp, #12]
	add	sp, sp, #16
	ret
	.cfi_endproc
                                        ; -- End function
	.globl	_PAStatusPerformRuin            ; -- Begin function PAStatusPerformRuin
	.p2align	2
_PAStatusPerformRuin:                   ; @PAStatusPerformRuin
	.cfi_startproc
; %bb.0:
	sub	sp, sp, #16
	.cfi_def_cfa_offset 16
	mov	x8, x0
	str	w8, [sp, #12]
	ldr	w0, [sp, #8]
	add	sp, sp, #16
	ret
	.cfi_endproc
                                        ; -- End function
	.globl	_PAStatusPerformCopy            ; -- Begin function PAStatusPerformCopy
	.p2align	2
_PAStatusPerformCopy:                   ; @PAStatusPerformCopy
	.cfi_startproc
; %bb.0:
	sub	sp, sp, #16
	.cfi_def_cfa_offset 16
	mov	x8, x0
	str	w8, [sp, #8]
	ldr	w8, [sp, #8]
	str	w8, [sp, #12]
	ldr	w0, [sp, #12]
	add	sp, sp, #16
	ret
	.cfi_endproc
                                        ; -- End function
	.globl	_PAStatusPerformInit            ; -- Begin function PAStatusPerformInit
	.p2align	2
_PAStatusPerformInit:                   ; @PAStatusPerformInit
	.cfi_startproc
; %bb.0:
	sub	sp, sp, #16
	.cfi_def_cfa_offset 16
	mov	x8, x0
	str	w8, [sp, #8]
	ldr	w0, [sp, #12]
	add	sp, sp, #16
	ret
	.cfi_endproc
                                        ; -- End function
	.globl	_PAStatusPerformPutValue        ; -- Begin function PAStatusPerformPutValue
	.p2align	2
_PAStatusPerformPutValue:               ; @PAStatusPerformPutValue
	.cfi_startproc
; %bb.0:
	sub	sp, sp, #16
	.cfi_def_cfa_offset 16
	mov	x8, x0
	str	w8, [sp, #8]
	str	w1, [sp, #4]
	ldr	w8, [sp, #4]
	str	w8, [sp, #8]
	ldr	w8, [sp, #8]
	str	w8, [sp, #12]
	ldr	w0, [sp, #12]
	add	sp, sp, #16
	ret
	.cfi_endproc
                                        ; -- End function
.subsections_via_symbols
