	.arch armv6
	.fpu vfp
	.eabi_attribute 28, 1
	.eabi_attribute 20, 1
	.eabi_attribute 21, 1
	.eabi_attribute 23, 3
	.eabi_attribute 24, 1
	.eabi_attribute 25, 1
	.eabi_attribute 26, 2
	.eabi_attribute 30, 6
	.eabi_attribute 34, 1
	.eabi_attribute 18, 4
	.file	"Value.c"
	.text
	.align	2
	.global	PAValuePerformConstruct
	.syntax unified
	.arm
	.type	PAValuePerformConstruct, %function
PAValuePerformConstruct:
	@ args = 0, pretend = 0, frame = 16
	@ frame_needed = 1, uses_anonymous_args = 0
	@ link register save eliminated.
	str	fp, [sp, #-4]!
	add	fp, sp, #0
	sub	sp, sp, #20
	str	r0, [fp, #-16]
	ldr	r3, [fp, #-8]
	mov	r0, r3
	add	sp, fp, #0
	@ sp needed
	ldr	fp, [sp], #4
	bx	lr
	.size	PAValuePerformConstruct, .-PAValuePerformConstruct
	.align	2
	.global	PAValuePerformRuin
	.syntax unified
	.arm
	.type	PAValuePerformRuin, %function
PAValuePerformRuin:
	@ args = 0, pretend = 0, frame = 16
	@ frame_needed = 1, uses_anonymous_args = 0
	@ link register save eliminated.
	str	fp, [sp, #-4]!
	add	fp, sp, #0
	sub	sp, sp, #20
	str	r0, [fp, #-16]
	ldr	r3, [fp, #-8]
	mov	r0, r3
	add	sp, fp, #0
	@ sp needed
	ldr	fp, [sp], #4
	bx	lr
	.size	PAValuePerformRuin, .-PAValuePerformRuin
	.align	2
	.global	PAValuePerformCopy
	.syntax unified
	.arm
	.type	PAValuePerformCopy, %function
PAValuePerformCopy:
	@ args = 0, pretend = 0, frame = 16
	@ frame_needed = 1, uses_anonymous_args = 0
	@ link register save eliminated.
	str	fp, [sp, #-4]!
	add	fp, sp, #0
	sub	sp, sp, #20
	str	r0, [fp, #-16]
	ldr	r3, [fp, #-8]
	mov	r0, r3
	add	sp, fp, #0
	@ sp needed
	ldr	fp, [sp], #4
	bx	lr
	.size	PAValuePerformCopy, .-PAValuePerformCopy
	.align	2
	.global	PAValuePerformInit
	.syntax unified
	.arm
	.type	PAValuePerformInit, %function
PAValuePerformInit:
	@ args = 0, pretend = 0, frame = 16
	@ frame_needed = 1, uses_anonymous_args = 0
	@ link register save eliminated.
	str	fp, [sp, #-4]!
	add	fp, sp, #0
	sub	sp, sp, #20
	str	r0, [fp, #-16]
	ldr	r3, [fp, #-16]
	str	r3, [fp, #-8]
	ldr	r3, [fp, #-8]
	mov	r0, r3
	add	sp, fp, #0
	@ sp needed
	ldr	fp, [sp], #4
	bx	lr
	.size	PAValuePerformInit, .-PAValuePerformInit
	.align	2
	.global	PAValuePerformPutValue
	.syntax unified
	.arm
	.type	PAValuePerformPutValue, %function
PAValuePerformPutValue:
	@ args = 0, pretend = 0, frame = 8
	@ frame_needed = 1, uses_anonymous_args = 0
	@ link register save eliminated.
	str	fp, [sp, #-4]!
	add	fp, sp, #0
	sub	sp, sp, #12
	str	r0, [fp, #-8]
	str	r1, [fp, #-12]
	ldr	r3, [fp, #-12]
	str	r3, [fp, #-8]
	ldr	r3, [fp, #-8]
	mov	r0, r3
	add	sp, fp, #0
	@ sp needed
	ldr	fp, [sp], #4
	bx	lr
	.size	PAValuePerformPutValue, .-PAValuePerformPutValue
	.align	2
	.global	op_Equality
	.syntax unified
	.arm
	.type	op_Equality, %function
op_Equality:
	@ args = 0, pretend = 0, frame = 8
	@ frame_needed = 1, uses_anonymous_args = 0
	@ link register save eliminated.
	str	fp, [sp, #-4]!
	add	fp, sp, #0
	sub	sp, sp, #12
	str	r0, [fp, #-8]
	str	r1, [fp, #-12]
	mov	r3, #1
	mov	r0, r3
	add	sp, fp, #0
	@ sp needed
	ldr	fp, [sp], #4
	bx	lr
	.size	op_Equality, .-op_Equality
	.align	2
	.global	op_Inequality
	.syntax unified
	.arm
	.type	op_Inequality, %function
op_Inequality:
	@ args = 0, pretend = 0, frame = 8
	@ frame_needed = 1, uses_anonymous_args = 0
	@ link register save eliminated.
	str	fp, [sp, #-4]!
	add	fp, sp, #0
	sub	sp, sp, #12
	str	r0, [fp, #-8]
	str	r1, [fp, #-12]
	mov	r3, #1
	mov	r0, r3
	add	sp, fp, #0
	@ sp needed
	ldr	fp, [sp], #4
	bx	lr
	.size	op_Inequality, .-op_Inequality
	.align	2
	.global	op_LessThan
	.syntax unified
	.arm
	.type	op_LessThan, %function
op_LessThan:
	@ args = 0, pretend = 0, frame = 8
	@ frame_needed = 1, uses_anonymous_args = 0
	@ link register save eliminated.
	str	fp, [sp, #-4]!
	add	fp, sp, #0
	sub	sp, sp, #12
	str	r0, [fp, #-8]
	str	r1, [fp, #-12]
	mov	r3, #1
	mov	r0, r3
	add	sp, fp, #0
	@ sp needed
	ldr	fp, [sp], #4
	bx	lr
	.size	op_LessThan, .-op_LessThan
	.align	2
	.global	op_GreatherThan
	.syntax unified
	.arm
	.type	op_GreatherThan, %function
op_GreatherThan:
	@ args = 0, pretend = 0, frame = 8
	@ frame_needed = 1, uses_anonymous_args = 0
	@ link register save eliminated.
	str	fp, [sp, #-4]!
	add	fp, sp, #0
	sub	sp, sp, #12
	str	r0, [fp, #-8]
	str	r1, [fp, #-12]
	mov	r3, #1
	mov	r0, r3
	add	sp, fp, #0
	@ sp needed
	ldr	fp, [sp], #4
	bx	lr
	.size	op_GreatherThan, .-op_GreatherThan
	.align	2
	.global	op_GreatherThanOrEqual
	.syntax unified
	.arm
	.type	op_GreatherThanOrEqual, %function
op_GreatherThanOrEqual:
	@ args = 0, pretend = 0, frame = 8
	@ frame_needed = 1, uses_anonymous_args = 0
	@ link register save eliminated.
	str	fp, [sp, #-4]!
	add	fp, sp, #0
	sub	sp, sp, #12
	str	r0, [fp, #-8]
	str	r1, [fp, #-12]
	mov	r3, #1
	mov	r0, r3
	add	sp, fp, #0
	@ sp needed
	ldr	fp, [sp], #4
	bx	lr
	.size	op_GreatherThanOrEqual, .-op_GreatherThanOrEqual
	.ident	"GCC: (Raspbian 12.2.0-14+rpi1+deb12u1) 12.2.0"
	.section	.note.GNU-stack,"",%progbits
