	.section	__TEXT,__text,regular,pure_instructions
	.build_version macos, 15, 0	sdk_version 26, 2
	.globl	_ArrayListPositionPerformConstruct ; -- Begin function ArrayListPositionPerformConstruct
	.p2align	2
_ArrayListPositionPerformConstruct:     ; @ArrayListPositionPerformConstruct
	.cfi_startproc
; %bb.0:
	sub	sp, sp, #16
	.cfi_def_cfa_offset 16
	str	w0, [sp, #8]
	adrp	x8, l___const.ArrayListPositionPerformConstruct.position@PAGE
	ldr	w8, [x8, l___const.ArrayListPositionPerformConstruct.position@PAGEOFF]
	str	w8, [sp, #12]
	ldr	w0, [sp, #12]
	add	sp, sp, #16
	ret
	.cfi_endproc
                                        ; -- End function
	.globl	_ArrayListPositionPerformInit   ; -- Begin function ArrayListPositionPerformInit
	.p2align	2
_ArrayListPositionPerformInit:          ; @ArrayListPositionPerformInit
	.cfi_startproc
; %bb.0:
	sub	sp, sp, #32
	stp	x29, x30, [sp, #16]             ; 16-byte Folded Spill
	add	x29, sp, #16
	.cfi_def_cfa w29, 16
	.cfi_offset w30, -8
	.cfi_offset w29, -16
	mov	x8, x0
	str	w8, [sp, #8]
	ldr	w0, [sp, #8]
	bl	_ArrayListPositionPerformConstruct
	str	w0, [sp, #4]
	ldr	w8, [sp, #4]
	stur	w8, [x29, #-4]
	ldur	w0, [x29, #-4]
	ldp	x29, x30, [sp, #16]             ; 16-byte Folded Reload
	add	sp, sp, #32
	ret
	.cfi_endproc
                                        ; -- End function
	.globl	_ArrayListPositionPerformCopy   ; -- Begin function ArrayListPositionPerformCopy
	.p2align	2
_ArrayListPositionPerformCopy:          ; @ArrayListPositionPerformCopy
	.cfi_startproc
; %bb.0:
	sub	sp, sp, #32
	stp	x29, x30, [sp, #16]             ; 16-byte Folded Spill
	add	x29, sp, #16
	.cfi_def_cfa w29, 16
	.cfi_offset w30, -8
	.cfi_offset w29, -16
	mov	x8, x0
	str	w8, [sp, #8]
	ldr	w0, [sp, #8]
	bl	_ArrayListPositionPerformConstruct
	str	w0, [sp, #4]
	ldr	w8, [sp, #4]
	stur	w8, [x29, #-4]
	ldr	w8, [sp, #8]
	mov	x0, x8
	bl	_ArrayListPositionPerformInit
	str	w0, [sp]
	ldr	w8, [sp]
	stur	w8, [x29, #-4]
	ldur	w0, [x29, #-4]
	ldp	x29, x30, [sp, #16]             ; 16-byte Folded Reload
	add	sp, sp, #32
	ret
	.cfi_endproc
                                        ; -- End function
	.globl	_ArrayListPositionPerformDelete ; -- Begin function ArrayListPositionPerformDelete
	.p2align	2
_ArrayListPositionPerformDelete:        ; @ArrayListPositionPerformDelete
	.cfi_startproc
; %bb.0:
	sub	sp, sp, #16
	.cfi_def_cfa_offset 16
	mov	x8, x0
	str	w8, [sp, #12]
	str	wzr, [sp, #8]
	ldr	w0, [sp, #8]
	add	sp, sp, #16
	ret
	.cfi_endproc
                                        ; -- End function
	.globl	_ArrayListPositionPerformRuin   ; -- Begin function ArrayListPositionPerformRuin
	.p2align	2
_ArrayListPositionPerformRuin:          ; @ArrayListPositionPerformRuin
	.cfi_startproc
; %bb.0:
	sub	sp, sp, #16
	.cfi_def_cfa_offset 16
	mov	x8, x0
	str	w8, [sp, #12]
	str	wzr, [sp, #8]
	ldr	w0, [sp, #8]
	add	sp, sp, #16
	ret
	.cfi_endproc
                                        ; -- End function
	.section	__TEXT,__literal4,4byte_literals
	.p2align	2, 0x0                          ; @__const.ArrayListPositionPerformConstruct.position
l___const.ArrayListPositionPerformConstruct.position:
	.long	1                               ; 0x1

.subsections_via_symbols
