	.section	__TEXT,__text,regular,pure_instructions
	.build_version macos, 15, 0	sdk_version 15, 5
	.globl	_AdapterRequest                 ; -- Begin function AdapterRequest
	.p2align	2
_AdapterRequest:                        ; @AdapterRequest
	.cfi_startproc
; %bb.0:
	sub	sp, sp, #64
	stp	x29, x30, [sp, #48]             ; 16-byte Folded Spill
	add	x29, sp, #48
	.cfi_def_cfa w29, 16
	.cfi_offset w30, -8
	.cfi_offset w29, -16
	adrp	x8, ___stack_chk_guard@GOTPAGE
	ldr	x8, [x8, ___stack_chk_guard@GOTPAGEOFF]
	ldr	x8, [x8]
	stur	x8, [x29, #-8]
	str	x0, [sp, #24]
	str	x1, [sp, #32]
	ldr	x8, [sp, #24]
	str	x8, [sp, #8]
	ldr	w8, [sp, #32]
	str	w8, [sp, #16]
	bl	_AdapteeSpecificRequest
	ldur	x9, [x29, #-8]
	adrp	x8, ___stack_chk_guard@GOTPAGE
	ldr	x8, [x8, ___stack_chk_guard@GOTPAGEOFF]
	ldr	x8, [x8]
	subs	x8, x8, x9
	b.eq	LBB0_2
	b	LBB0_1
LBB0_1:
	bl	___stack_chk_fail
LBB0_2:
	ldp	x29, x30, [sp, #48]             ; 16-byte Folded Reload
	add	sp, sp, #64
	ret
	.cfi_endproc
                                        ; -- End function
	.globl	_AdapterHead                    ; -- Begin function AdapterHead
	.p2align	2
_AdapterHead:                           ; @AdapterHead
	.cfi_startproc
; %bb.0:
	sub	sp, sp, #112
	stp	x29, x30, [sp, #96]             ; 16-byte Folded Spill
	add	x29, sp, #96
	.cfi_def_cfa w29, 16
	.cfi_offset w30, -8
	.cfi_offset w29, -16
	adrp	x8, ___stack_chk_guard@GOTPAGE
	ldr	x8, [x8, ___stack_chk_guard@GOTPAGEOFF]
	ldr	x8, [x8]
	stur	x8, [x29, #-8]
	stur	x0, [x29, #-24]
	stur	x1, [x29, #-16]
	ldur	x8, [x29, #-24]
	str	x8, [sp, #24]
	ldur	w8, [x29, #-16]
	str	w8, [sp, #32]
	mov	w0, #0                          ; =0x0
	bl	_AdapteeGet
	str	w0, [sp, #20]
	ldr	w8, [sp, #20]
	str	w8, [sp, #24]
	ldr	x8, [sp, #24]
	str	x8, [sp, #40]
	ldr	w8, [sp, #32]
	str	w8, [sp, #48]
	ldr	x8, [sp, #40]
	stur	x8, [x29, #-40]
	ldr	w8, [sp, #48]
	stur	w8, [x29, #-32]
	ldur	x8, [x29, #-40]
	str	x8, [sp]                        ; 8-byte Folded Spill
	ldur	x8, [x29, #-32]
	str	x8, [sp, #8]                    ; 8-byte Folded Spill
	ldur	x9, [x29, #-8]
	adrp	x8, ___stack_chk_guard@GOTPAGE
	ldr	x8, [x8, ___stack_chk_guard@GOTPAGEOFF]
	ldr	x8, [x8]
	subs	x8, x8, x9
	b.eq	LBB1_2
	b	LBB1_1
LBB1_1:
	bl	___stack_chk_fail
LBB1_2:
	ldr	x1, [sp, #8]                    ; 8-byte Folded Reload
	ldr	x0, [sp]                        ; 8-byte Folded Reload
	ldp	x29, x30, [sp, #96]             ; 16-byte Folded Reload
	add	sp, sp, #112
	ret
	.cfi_endproc
                                        ; -- End function
.subsections_via_symbols
